Certificate:
    Data:
        Version: 3 (0x2)
        Serial Number:
            c9:5a:3a:fe:74:ef:82:9a:a2:d4:db:94:9e:54:db
        Signature Algorithm: sha256WithRSAEncryption
        Issuer: OU = Created by http://www.fiddler2.com, O = DO_NOT_TRUST_BC, CN = DO_NOT_TRUST_FiddlerRoot
        Validity
            Not Before: Jan 21 00:00:00 2021 GMT
            Not After : Jan 28 12:40:47 2031 GMT
        Subject: OU = Created by http://www.fiddler2.com, O = DO_NOT_TRUST_BC, CN = DO_NOT_TRUST_FiddlerRoot
        Subject Public Key Info:
            Public Key Algorithm: rsaEncryption
                RSA Public-Key: (2048 bit)
                Modulus:
                    00:91:4c:4d:fa:75:39:f0:66:96:d9:71:62:f5:bf:
                    52:b2:de:2a:0a:98:a1:55:13:a9:51:53:58:49:42:
                    12:66:9b:d8:b0:bd:ba:09:63:d3:a7:e0:97:82:c8:
                    a0:63:95:62:61:f6:2f:dd:b7:a1:2c:b8:49:fa:8e:
                    34:6e:3f:11:0a:8f:8e:3c:0f:cf:d2:d6:64:63:13:
                    40:69:ff:68:1d:ca:94:c6:c6:c0:84:4b:a5:c6:1f:
                    e9:5f:1a:44:32:16:ab:ba:0a:3f:a5:bf:3c:ac:78:
                    fd:4c:af:4b:0c:c4:af:ff:8d:1b:f9:28:3f:eb:23:
                    ca:a7:1a:45:e1:6e:77:c8:b5:4b:d2:cf:26:f9:92:
                    af:82:68:d2:53:d2:66:3b:dd:ef:63:7d:b9:d0:ba:
                    ae:0b:c0:26:07:0b:4b:cb:64:ef:3c:d0:b4:4d:f6:
                    61:42:da:43:5b:33:25:79:65:2b:4d:72:b7:2a:c6:
                    7c:7e:76:1a:3d:91:79:81:7c:78:7b:af:f9:68:12:
                    c1:d4:e3:fd:42:3c:7e:b0:ea:c9:3d:53:a8:75:9a:
                    7d:9f:8e:da:89:03:d5:4a:02:42:b9:f0:1b:5c:1a:
                    62:3b:77:39:0f:e8:94:f4:47:17:8e:30:b8:13:c1:
                    05:e8:85:e8:8d:2b:91:b2:00:1d:42:27:08:d2:3a:
                    de:dd
                Exponent: 65537 (0x10001)
        X509v3 extensions:
            X509v3 Basic Constraints: critical
                CA:TRUE, pathlen:0
            X509v3 Key Usage: critical
                Certificate Sign
            X509v3 Subject Key Identifier: 
                E9:E2:D3:94:5B:5D:8D:DC:2B:1D:39:B7:C8:43:5D:98:FD:63:36:38
    Signature Algorithm: sha256WithRSAEncryption
         0b:ab:52:c0:d2:d2:92:d4:44:d2:3f:4d:43:c0:fe:a4:46:ee:
         ac:16:8c:bf:9f:ed:60:ae:74:1a:26:64:48:0b:a9:22:ea:eb:
         69:a3:13:39:0a:2c:d5:6f:1e:f4:bf:12:c9:5b:db:59:68:ea:
         66:1b:ea:d8:4b:34:f3:ed:a1:b9:c6:de:cb:10:c3:be:70:15:
         0a:aa:93:db:93:ed:ff:35:ef:c6:22:77:94:9b:aa:89:f6:c1:
         61:34:ec:88:84:bc:34:6a:a3:92:81:ad:4b:69:4f:db:03:b5:
         da:1b:0b:14:77:fa:82:28:03:61:4f:e3:fa:f1:a1:df:87:ee:
         b6:79:0d:9c:4a:f0:09:c2:fd:c7:75:1e:d5:d4:e9:e3:f8:13:
         f1:6d:ff:0c:91:cd:1f:b2:54:7b:e8:ad:1a:13:09:ba:5c:80:
         19:b8:0a:b0:79:41:4b:ed:a9:cf:74:dc:fc:55:f9:bb:cc:51:
         29:2b:46:b8:be:2e:c5:c2:6f:42:9b:04:98:c1:49:2f:f1:ee:
         56:be:f0:5e:42:61:ba:c3:83:0a:77:c3:fd:c1:d7:54:86:96:
         d4:45:45:8b:a2:36:85:e8:18:89:bd:26:e4:b6:9d:e1:b2:2f:
         c6:ef:0b:5b:84:6b:80:89:76:51:93:41:5e:30:ee:61:fa:ee:
         12:9b:97:14
-----BEGIN CERTIFICATE-----
MIIDozCCAougAwIBAgIQAMlaOv5074KaotTblJ5U2zANBgkqhkiG9w0BAQsFADBq
MSswKQYDVQQLDCJDcmVhdGVkIGJ5IGh0dHA6Ly93d3cuZmlkZGxlcjIuY29tMRgw
FgYDVQQKDA9ET19OT1RfVFJVU1RfQkMxITAfBgNVBAMMGERPX05PVF9UUlVTVF9G
aWRkbGVyUm9vdDAeFw0yMTAxMjEwMDAwMDBaFw0zMTAxMjgxMjQwNDdaMGoxKzAp
BgNVBAsMIkNyZWF0ZWQgYnkgaHR0cDovL3d3dy5maWRkbGVyMi5jb20xGDAWBgNV
BAoMD0RPX05PVF9UUlVTVF9CQzEhMB8GA1UEAwwYRE9fTk9UX1RSVVNUX0ZpZGRs
ZXJSb290MIIBIjANBgkqhkiG9w0BAQEFAAOCAQ8AMIIBCgKCAQEAkUxN+nU58GaW
2XFi9b9Sst4qCpihVROpUVNYSUISZpvYsL26CWPTp+CXgsigY5ViYfYv3behLLhJ
+o40bj8RCo+OPA/P0tZkYxNAaf9oHcqUxsbAhEulxh/pXxpEMharugo/pb88rHj9
TK9LDMSv/40b+Sg/6yPKpxpF4W53yLVL0s8m+ZKvgmjSU9JmO93vY3250LquC8Am
BwtLy2TvPNC0TfZhQtpDWzMleWUrTXK3KsZ8fnYaPZF5gXx4e6/5aBLB1OP9Qjx+
sOrJPVOodZp9n47aiQPVSgJCufAbXBpiO3c5D+iU9EcXjjC4E8EF6IXojSuRsgAd
QicI0jre3QIDAQABo0UwQzASBgNVHRMBAf8ECDAGAQH/AgEAMA4GA1UdDwEB/wQE
AwICBDAdBgNVHQ4EFgQU6eLTlFtdjdwrHTm3yENdmP1jNjgwDQYJKoZIhvcNAQEL
BQADggEBAAurUsDS0pLURNI/TUPA/qRG7qwWjL+f7WCudBomZEgLqSLq62mjEzkK
LNVvHvS/Eslb21lo6mYb6thLNPPtobnG3ssQw75wFQqqk9uT7f8178Yid5Sbqon2
wWE07IiEvDRqo5KBrUtpT9sDtdobCxR3+oIoA2FP4/rxod+H7rZ5DZxK8AnC/cd1
HtXU6eP4E/Ft/wyRzR+yVHvorRoTCbpcgBm4CrB5QUvtqc903PxV+bvMUSkrRri+
LsXCb0KbBJjBSS/x7la+8F5CYbrDgwp3w/3B11SGltRFRYuiNoXoGIm9JuS2neGy
L8bvC1uEa4CJdlGTQV4w7mH67hKblxQ=
-----END CERTIFICATE-----
